(dp1
S'nb_params:'
p2
F0
sS'iter_mean'
p3
(lp4
cnumpy.core.multiarray
scalar
p5
(cnumpy
dtype
p6
(S'f8'
I0
I1
tRp7
(I3
S'<'
NNNI-1
I-1
I0
tbS'\xb8\x1e\x85\xebQ\x06{\xc0'
tRp8
asS'iter_time'
p9
(lp10
F63.458585023880005
asS'nb_params'
p11
g5
(g6
(S'i8'
I0
I1
tRp12
(I3
S'<'
NNNI-1
I-1
I0
tbS'\x06\x00\x00\x00\x00\x00\x00\x00'
tRp13
sS'action_size'
p14
I3
sS'continuous'
p15
I01
sS'iter_validation'
p16
(lp17
g5
(g7
S'\x00\x00\x00\x00\x00@\x7f\xc0'
tRp18
asS'final_score'
p19
g18
sS'state_size'
p20
g5
(g12
S'\x06\x00\x00\x00\x00\x00\x00\x00'
tRp21
s.