(dp1
S'nb_params:'
p2
F0
sS'iter_mean'
p3
(lp4
cnumpy.core.multiarray
scalar
p5
(cnumpy
dtype
p6
(S'f8'
I0
I1
tRp7
(I3
S'<'
NNNI-1
I-1
I0
tbS'G\x1f\xa9F\x1f\xa96@'
tRp8
ag5
(g7
S'?~\xfc\xf8\xf1\xe36@'
tRp9
asS'iter_time'
p10
(lp11
F7.1095390319824219
aF7.044346809387207
asS'nb_params'
p12
g5
(g6
(S'i8'
I0
I1
tRp13
(I3
S'<'
NNNI-1
I-1
I0
tbS'\x04\x00\x00\x00\x00\x00\x00\x00'
tRp14
sS'action_size'
p15
I2
sS'continuous'
p16
I01
sS'iter_validation'
p17
(lp18
g5
(g7
S'ffffff8@'
tRp19
ag5
(g7
S'\x02\x15\xbd\xa5\xd3p>@'
tRp20
asS'final_score'
p21
g20
sS'state_size'
p22
g5
(g13
S'\x04\x00\x00\x00\x00\x00\x00\x00'
tRp23
s.