(dp1
S'nb_params:'
p2
F0
sS'iter_mean'
p3
(lp4
cnumpy.core.multiarray
scalar
p5
(cnumpy
dtype
p6
(S'f8'
I0
I1
tRp7
(I3
S'<'
NNNI-1
I-1
I0
tbS'D6"\x1b\x91\r7@'
tRp8
ag5
(g7
S'\x03\xc1\xf6/\xb7\x996@'
tRp9
ag5
(g7
S'6\xb9Y\x85\x92"@@'
tRp10
ag5
(g7
S'\x00\x00\x00\x00\x00@N@'
tRp11
ag5
(g7
S'F\x8c\x181b$a@'
tRp12
ag5
(g7
S'|\x1aa\xb9\xa7\x91e@'
tRp13
ag5
(g7
S'\xae\xecsHM\xd0g@'
tRp14
ag5
(g7
S'\x9e\x12\xe4)A\xdef@'
tRp15
ag5
(g7
S'\xd9\x89\x9d\xd8\x89}h@'
tRp16
ag5
(g7
S'FFFFF\xe6h@'
tRp17
ag5
(g7
S'\xa6\xb3\x98\xceb\x1af@'
tRp18
asS'iter_time'
p19
(lp20
F7.1224510669708252
aF7.089972972869873
aF6.8128829002380371
aF6.9224050045013428
aF6.5845901966094971
aF7.0112800598144531
aF6.7270429134368896
aF6.9902751445770264
aF7.1007030010223389
aF7.1065130233764648
aF6.9742701053619385
asS'nb_params'
p21
g5
(g6
(S'i8'
I0
I1
tRp22
(I3
S'<'
NNNI-1
I-1
I0
tbS'\x04\x00\x00\x00\x00\x00\x00\x00'
tRp23
sS'action_size'
p24
I2
sS'continuous'
p25
I01
sS'iter_validation'
p26
(lp27
g5
(g7
S'\xa08P\x1c(\x0e7@'
tRp28
ag5
(g7
S'\x8eG\xf3\x07\x1b\x0f?@'
tRp29
ag5
(g7
S'\xeei\x84\xe5\x9e\xc6L@'
tRp30
ag5
(g7
S'\x96\xa8]\x89\xda\x95^@'
tRp31
ag5
(g7
S'E\xd0pR\xf7Ee@'
tRp32
ag5
(g7
S'*A\x9e\x12\xe4)g@'
tRp33
ag5
(g7
S'fffff&g@'
tRp34
ag5
(g7
S'\x8c\xb7\xb2\xcf!\xb5g@'
tRp35
ag5
(g7
S'\x9e\xd8\x89\x9d\xd8Yh@'
tRp36
ag5
(g7
S'\x13\xdaKh/Qg@'
tRp37
ag5
(g7
S'ddddd\xe4h@'
tRp38
asS'final_score'
p39
g38
sS'_solved_threshold'
p40
F195
sS'state_size'
p41
g5
(g22
S'\x04\x00\x00\x00\x00\x00\x00\x00'
tRp42
s.